target datalayout = "e-m:e-p270:32:32-p271:32:32-p272:64:64-i64:64-i128:128-f80:128-n8:16:32:64-S128"
target triple = "x86_64-pc-linux-gnu"

%struct.JsonPathString = type { ptr, i32, i32 }
%struct.JsonPathParseItem = type { i32, ptr, %union.anon }
%union.anon = type { %struct.anon.2 }
%struct.anon.2 = type { ptr, ptr, i32, i32 }
%struct.pg_regex_t = type { i32, i64, i64, i32, ptr, i32, ptr, ptr }

@.str = private unnamed_addr constant [33 x i8] c"invalid input syntax for type %s\00", align 1
@.str.1 = private unnamed_addr constant [9 x i8] c"jsonpath\00", align 1
@.str.3 = private unnamed_addr constant [16 x i8] c"jsonpath_gram.y\00", align 1
@.str.10 = private unnamed_addr constant [66 x i8] c"XQuery \22x\22 flag (expanded regular expressions) is not implemented\00", align 1
@__func__.jspConvertRegexFlags = private unnamed_addr constant [21 x i8] c"jspConvertRegexFlags\00", align 1
@InterruptPending = external global i32, align 4
@.str.12 = private unnamed_addr constant [60 x i8] c"Unrecognized flag character \22%.*s\22 in LIKE_REGEX predicate.\00", align 1
@__func__.makeItemLikeRegex = private unnamed_addr constant [18 x i8] c"makeItemLikeRegex\00", align 1
@.str.13 = private unnamed_addr constant [31 x i8] c"invalid regular expression: %s\00", align 1

; Function Attrs: nounwind uwtable
define dso_local zeroext i1 @jspConvertRegexFlags(i32 noundef %0, ptr noundef %1, ptr noundef %2) #0 {
  %4 = alloca i1, align 1
  %5 = alloca i32, align 4
  %6 = alloca ptr, align 8
  %7 = alloca ptr, align 8
  %8 = alloca i32, align 4
  %9 = alloca ptr, align 8
  %10 = alloca i32, align 4
  store i32 %0, ptr %5, align 4
  store ptr %1, ptr %6, align 8
  store ptr %2, ptr %7, align 8
  call void @llvm.lifetime.start.p0(i64 4, ptr %8) #7
  store i32 3, ptr %8, align 4
  %11 = load i32, ptr %5, align 4
  %12 = and i32 %11, 1
  %13 = icmp ne i32 %12, 0
  br i1 %13, label %14, label %17

14:                                               ; preds = %3
  %15 = load i32, ptr %8, align 4
  %16 = or i32 %15, 8
  store i32 %16, ptr %8, align 4
  br label %17

17:                                               ; preds = %14, %3
  %18 = load i32, ptr %5, align 4
  %19 = and i32 %18, 16
  %20 = icmp ne i32 %19, 0
  br i1 %20, label %21, label %26

21:                                               ; preds = %17
  %22 = load i32, ptr %8, align 4
  %23 = and i32 %22, -4
  store i32 %23, ptr %8, align 4
  %24 = load i32, ptr %8, align 4
  %25 = or i32 %24, 4
  store i32 %25, ptr %8, align 4
  br label %60

26:                                               ; preds = %17
  %27 = load i32, ptr %5, align 4
  %28 = and i32 %27, 2
  %29 = icmp ne i32 %28, 0
  br i1 %29, label %33, label %30

30:                                               ; preds = %26
  %31 = load i32, ptr %8, align 4
  %32 = or i32 %31, 64
  store i32 %32, ptr %8, align 4
  br label %33

33:                                               ; preds = %30, %26
  %34 = load i32, ptr %5, align 4
  %35 = and i32 %34, 4
  %36 = icmp ne i32 %35, 0
  br i1 %36, label %37, label %40

37:                                               ; preds = %33
  %38 = load i32, ptr %8, align 4
  %39 = or i32 %38, 128
  store i32 %39, ptr %8, align 4
  br label %40

40:                                               ; preds = %37, %33
  %41 = load i32, ptr %5, align 4
  %42 = and i32 %41, 8
  %43 = icmp ne i32 %42, 0
  br i1 %43, label %44, label %59

44:                                               ; preds = %40
  br label %45

45:                                               ; preds = %44
  br label %46

46:                                               ; preds = %45
  call void @llvm.lifetime.start.p0(i64 8, ptr %9) #7
  %47 = load ptr, ptr %7, align 8
  store ptr %47, ptr %9, align 8
  %48 = load ptr, ptr %9, align 8
  %49 = call zeroext i1 @errsave_start(ptr noundef %48, ptr noundef null)
  br i1 %49, label %50, label %54

50:                                               ; preds = %46
  %51 = call i32 @errcode(i32 noundef 1088)
  %52 = call i32 (ptr, ...) @errmsg(ptr noundef @.str.10)
  %53 = load ptr, ptr %9, align 8
  call void @errsave_finish(ptr noundef %53, ptr noundef @.str.3, i32 noundef 679, ptr noundef @__func__.jspConvertRegexFlags)
  br label %54

54:                                               ; preds = %50, %46
  call void @llvm.lifetime.end.p0(i64 8, ptr %9) #7
  br label %55

55:                                               ; preds = %54
  br label %56

56:                                               ; preds = %55
  store i1 false, ptr %4, align 1
  store i32 1, ptr %10, align 4
  br label %63

57:                                               ; No predecessors!
  br label %58

58:                                               ; preds = %57
  br label %59

59:                                               ; preds = %58, %40
  br label %60

60:                                               ; preds = %59, %21
  %61 = load i32, ptr %8, align 4
  %62 = load ptr, ptr %6, align 8
  store i32 %61, ptr %62, align 4
  store i1 true, ptr %4, align 1
  store i32 1, ptr %10, align 4
  br label %63

63:                                               ; preds = %60, %56
  call void @llvm.lifetime.end.p0(i64 4, ptr %8) #7
  %64 = load i1, ptr %4, align 1
  ret i1 %64
}

; Function Attrs: nounwind uwtable
define internal ptr @makeItemType(i32 noundef %0) #0 {
  %2 = alloca i32, align 4
  %3 = alloca ptr, align 8
  store i32 %0, ptr %2, align 4
  call void @llvm.lifetime.start.p0(i64 8, ptr %3) #7
  %4 = call ptr @palloc(i64 noundef 40)
  store ptr %4, ptr %3, align 8
  br label %5

5:                                                ; preds = %1
  %6 = load volatile i32, ptr @InterruptPending, align 4
  %7 = icmp ne i32 %6, 0
  %8 = zext i1 %7 to i32
  %9 = sext i32 %8 to i64
  %10 = call i64 @llvm.expect.i64(i64 %9, i64 0)
  %11 = icmp ne i64 %10, 0
  br i1 %11, label %12, label %13

12:                                               ; preds = %5
  call void @ProcessInterrupts()
  br label %13

13:                                               ; preds = %12, %5
  br label %14

14:                                               ; preds = %13
  br label %15

15:                                               ; preds = %14
  %16 = load i32, ptr %2, align 4
  %17 = load ptr, ptr %3, align 8
  %18 = getelementptr inbounds nuw %struct.JsonPathParseItem, ptr %17, i32 0, i32 0
  store i32 %16, ptr %18, align 8
  %19 = load ptr, ptr %3, align 8
  %20 = getelementptr inbounds nuw %struct.JsonPathParseItem, ptr %19, i32 0, i32 1
  store ptr null, ptr %20, align 8
  %21 = load ptr, ptr %3, align 8
  call void @llvm.lifetime.end.p0(i64 8, ptr %3) #7
  ret ptr %21
}

; Function Attrs: nounwind uwtable
define internal zeroext i1 @makeItemLikeRegex(ptr noundef %0, ptr noundef %1, ptr noundef %2, ptr noundef %3, ptr noundef %4) #0 {
  %6 = alloca i1, align 1
  %7 = alloca ptr, align 8
  %8 = alloca ptr, align 8
  %9 = alloca ptr, align 8
  %10 = alloca ptr, align 8
  %11 = alloca ptr, align 8
  %12 = alloca ptr, align 8
  %13 = alloca i32, align 4
  %14 = alloca i32, align 4
  %15 = alloca ptr, align 8
  %16 = alloca i32, align 4
  %17 = alloca %struct.pg_regex_t, align 8
  %18 = alloca ptr, align 8
  %19 = alloca i32, align 4
  %20 = alloca i32, align 4
  %21 = alloca [100 x i8], align 16
  %22 = alloca ptr, align 8
  store ptr %0, ptr %7, align 8
  store ptr %1, ptr %8, align 8
  store ptr %2, ptr %9, align 8
  store ptr %3, ptr %10, align 8
  store ptr %4, ptr %11, align 8
  call void @llvm.lifetime.start.p0(i64 8, ptr %12) #7
  %23 = call ptr @makeItemType(i32 noundef 42)
  store ptr %23, ptr %12, align 8
  call void @llvm.lifetime.start.p0(i64 4, ptr %13) #7
  call void @llvm.lifetime.start.p0(i64 4, ptr %14) #7
  %24 = load ptr, ptr %7, align 8
  %25 = load ptr, ptr %12, align 8
  %26 = getelementptr inbounds nuw %struct.JsonPathParseItem, ptr %25, i32 0, i32 2
  %27 = getelementptr inbounds nuw %struct.anon.2, ptr %26, i32 0, i32 0
  store ptr %24, ptr %27, align 8
  %28 = load ptr, ptr %8, align 8
  %29 = getelementptr inbounds nuw %struct.JsonPathString, ptr %28, i32 0, i32 0
  %30 = load ptr, ptr %29, align 8
  %31 = load ptr, ptr %12, align 8
  %32 = getelementptr inbounds nuw %struct.JsonPathParseItem, ptr %31, i32 0, i32 2
  %33 = getelementptr inbounds nuw %struct.anon.2, ptr %32, i32 0, i32 1
  store ptr %30, ptr %33, align 8
  %34 = load ptr, ptr %8, align 8
  %35 = getelementptr inbounds nuw %struct.JsonPathString, ptr %34, i32 0, i32 1
  %36 = load i32, ptr %35, align 8
  %37 = load ptr, ptr %12, align 8
  %38 = getelementptr inbounds nuw %struct.JsonPathParseItem, ptr %37, i32 0, i32 2
  %39 = getelementptr inbounds nuw %struct.anon.2, ptr %38, i32 0, i32 2
  store i32 %36, ptr %39, align 8
  %40 = load ptr, ptr %12, align 8
  %41 = getelementptr inbounds nuw %struct.JsonPathParseItem, ptr %40, i32 0, i32 2
  %42 = getelementptr inbounds nuw %struct.anon.2, ptr %41, i32 0, i32 3
  store i32 0, ptr %42, align 4
  store i32 0, ptr %13, align 4
  br label %43

43:                                               ; preds = %123, %5
  %44 = load ptr, ptr %9, align 8
  %45 = icmp ne ptr %44, null
  br i1 %45, label %46, label %52

46:                                               ; preds = %43
  %47 = load i32, ptr %13, align 4
  %48 = load ptr, ptr %9, align 8
  %49 = getelementptr inbounds nuw %struct.JsonPathString, ptr %48, i32 0, i32 1
  %50 = load i32, ptr %49, align 8
  %51 = icmp slt i32 %47, %50
  br label %52

52:                                               ; preds = %46, %43
  %53 = phi i1 [ false, %43 ], [ %51, %46 ]
  br i1 %53, label %54, label %126

54:                                               ; preds = %52
  %55 = load ptr, ptr %9, align 8
  %56 = getelementptr inbounds nuw %struct.JsonPathString, ptr %55, i32 0, i32 0
  %57 = load ptr, ptr %56, align 8
  %58 = load i32, ptr %13, align 4
  %59 = sext i32 %58 to i64
  %60 = getelementptr inbounds i8, ptr %57, i64 %59
  %61 = load i8, ptr %60, align 1
  %62 = sext i8 %61 to i32
  switch i32 %62, label %93 [
    i32 105, label %63
    i32 115, label %69
    i32 109, label %75
    i32 120, label %81
    i32 113, label %87
  ]

63:                                               ; preds = %54
  %64 = load ptr, ptr %12, align 8
  %65 = getelementptr inbounds nuw %struct.JsonPathParseItem, ptr %64, i32 0, i32 2
  %66 = getelementptr inbounds nuw %struct.anon.2, ptr %65, i32 0, i32 3
  %67 = load i32, ptr %66, align 4
  %68 = or i32 %67, 1
  store i32 %68, ptr %66, align 4
  br label %122

69:                                               ; preds = %54
  %70 = load ptr, ptr %12, align 8
  %71 = getelementptr inbounds nuw %struct.JsonPathParseItem, ptr %70, i32 0, i32 2
  %72 = getelementptr inbounds nuw %struct.anon.2, ptr %71, i32 0, i32 3
  %73 = load i32, ptr %72, align 4
  %74 = or i32 %73, 2
  store i32 %74, ptr %72, align 4
  br label %122

75:                                               ; preds = %54
  %76 = load ptr, ptr %12, align 8
  %77 = getelementptr inbounds nuw %struct.JsonPathParseItem, ptr %76, i32 0, i32 2
  %78 = getelementptr inbounds nuw %struct.anon.2, ptr %77, i32 0, i32 3
  %79 = load i32, ptr %78, align 4
  %80 = or i32 %79, 4
  store i32 %80, ptr %78, align 4
  br label %122

81:                                               ; preds = %54
  %82 = load ptr, ptr %12, align 8
  %83 = getelementptr inbounds nuw %struct.JsonPathParseItem, ptr %82, i32 0, i32 2
  %84 = getelementptr inbounds nuw %struct.anon.2, ptr %83, i32 0, i32 3
  %85 = load i32, ptr %84, align 4
  %86 = or i32 %85, 8
  store i32 %86, ptr %84, align 4
  br label %122

87:                                               ; preds = %54
  %88 = load ptr, ptr %12, align 8
  %89 = getelementptr inbounds nuw %struct.JsonPathParseItem, ptr %88, i32 0, i32 2
  %90 = getelementptr inbounds nuw %struct.anon.2, ptr %89, i32 0, i32 3
  %91 = load i32, ptr %90, align 4
  %92 = or i32 %91, 16
  store i32 %92, ptr %90, align 4
  br label %122

93:                                               ; preds = %54
  br label %94

94:                                               ; preds = %93
  br label %95

95:                                               ; preds = %94
  call void @llvm.lifetime.start.p0(i64 8, ptr %15) #7
  %96 = load ptr, ptr %11, align 8
  store ptr %96, ptr %15, align 8
  %97 = load ptr, ptr %15, align 8
  %98 = call zeroext i1 @errsave_start(ptr noundef %97, ptr noundef null)
  br i1 %98, label %99, label %117

99:                                               ; preds = %95
  %100 = call i32 @errcode(i32 noundef 16801924)
  %101 = call i32 (ptr, ...) @errmsg(ptr noundef @.str, ptr noundef @.str.1)
  %102 = load ptr, ptr %9, align 8
  %103 = getelementptr inbounds nuw %struct.JsonPathString, ptr %102, i32 0, i32 0
  %104 = load ptr, ptr %103, align 8
  %105 = load i32, ptr %13, align 4
  %106 = sext i32 %105 to i64
  %107 = getelementptr inbounds i8, ptr %104, i64 %106
  %108 = call i32 @pg_mblen(ptr noundef %107)
  %109 = load ptr, ptr %9, align 8
  %110 = getelementptr inbounds nuw %struct.JsonPathString, ptr %109, i32 0, i32 0
  %111 = load ptr, ptr %110, align 8
  %112 = load i32, ptr %13, align 4
  %113 = sext i32 %112 to i64
  %114 = getelementptr inbounds i8, ptr %111, i64 %113
  %115 = call i32 (ptr, ...) @errdetail(ptr noundef @.str.12, i32 noundef %108, ptr noundef %114)
  %116 = load ptr, ptr %15, align 8
  call void @errsave_finish(ptr noundef %116, ptr noundef @.str.3, i32 noundef 602, ptr noundef @__func__.makeItemLikeRegex)
  br label %117

117:                                              ; preds = %99, %95
  call void @llvm.lifetime.end.p0(i64 8, ptr %15) #7
  br label %118

118:                                              ; preds = %117
  br label %119

119:                                              ; preds = %118
  store i1 false, ptr %6, align 1
  store i32 1, ptr %16, align 4
  br label %184

120:                                              ; No predecessors!
  br label %121

121:                                              ; preds = %120
  br label %122

122:                                              ; preds = %121, %87, %81, %75, %69, %63
  br label %123

123:                                              ; preds = %122
  %124 = load i32, ptr %13, align 4
  %125 = add i32 %124, 1
  store i32 %125, ptr %13, align 4
  br label %43, !llvm.loop !8

126:                                              ; preds = %52
  %127 = load ptr, ptr %12, align 8
  %128 = getelementptr inbounds nuw %struct.JsonPathParseItem, ptr %127, i32 0, i32 2
  %129 = getelementptr inbounds nuw %struct.anon.2, ptr %128, i32 0, i32 3
  %130 = load i32, ptr %129, align 4
  %131 = load ptr, ptr %11, align 8
  %132 = call zeroext i1 @jspConvertRegexFlags(i32 noundef %130, ptr noundef %14, ptr noundef %131)
  br i1 %132, label %134, label %133

133:                                              ; preds = %126
  store i1 false, ptr %6, align 1
  store i32 1, ptr %16, align 4
  br label %184

134:                                              ; preds = %126
  call void @llvm.lifetime.start.p0(i64 64, ptr %17) #7
  call void @llvm.lifetime.start.p0(i64 8, ptr %18) #7
  call void @llvm.lifetime.start.p0(i64 4, ptr %19) #7
  call void @llvm.lifetime.start.p0(i64 4, ptr %20) #7
  %135 = load ptr, ptr %8, align 8
  %136 = getelementptr inbounds nuw %struct.JsonPathString, ptr %135, i32 0, i32 1
  %137 = load i32, ptr %136, align 8
  %138 = add i32 %137, 1
  %139 = sext i32 %138 to i64
  %140 = mul i64 %139, 4
  %141 = call ptr @palloc(i64 noundef %140)
  store ptr %141, ptr %18, align 8
  %142 = load ptr, ptr %8, align 8
  %143 = getelementptr inbounds nuw %struct.JsonPathString, ptr %142, i32 0, i32 0
  %144 = load ptr, ptr %143, align 8
  %145 = load ptr, ptr %18, align 8
  %146 = load ptr, ptr %8, align 8
  %147 = getelementptr inbounds nuw %struct.JsonPathString, ptr %146, i32 0, i32 1
  %148 = load i32, ptr %147, align 8
  %149 = call i32 @pg_mb2wchar_with_len(ptr noundef %144, ptr noundef %145, i32 noundef %148)
  store i32 %149, ptr %19, align 4
  %150 = load ptr, ptr %18, align 8
  %151 = load i32, ptr %19, align 4
  %152 = sext i32 %151 to i64
  %153 = load i32, ptr %14, align 4
  %154 = call i32 @pg_regcomp(ptr noundef %17, ptr noundef %150, i64 noundef %152, i32 noundef %153, i32 noundef 100)
  store i32 %154, ptr %20, align 4
  %155 = icmp ne i32 %154, 0
  br i1 %155, label %156, label %178

156:                                              ; preds = %134
  call void @llvm.lifetime.start.p0(i64 100, ptr %21) #7
  %157 = load i32, ptr %20, align 4
  %158 = getelementptr inbounds [100 x i8], ptr %21, i64 0, i64 0
  %159 = call i64 @pg_regerror(i32 noundef %157, ptr noundef %17, ptr noundef %158, i64 noundef 100)
  br label %160

160:                                              ; preds = %156
  br label %161

161:                                              ; preds = %160
  call void @llvm.lifetime.start.p0(i64 8, ptr %22) #7
  %162 = load ptr, ptr %11, align 8
  store ptr %162, ptr %22, align 8
  %163 = load ptr, ptr %22, align 8
  %164 = call zeroext i1 @errsave_start(ptr noundef %163, ptr noundef null)
  br i1 %164, label %165, label %170

165:                                              ; preds = %161
  %166 = call i32 @errcode(i32 noundef 302252162)
  %167 = getelementptr inbounds [100 x i8], ptr %21, i64 0, i64 0
  %168 = call i32 (ptr, ...) @errmsg(ptr noundef @.str.13, ptr noundef %167)
  %169 = load ptr, ptr %22, align 8
  call void @errsave_finish(ptr noundef %169, ptr noundef @.str.3, i32 noundef 631, ptr noundef @__func__.makeItemLikeRegex)
  br label %170

170:                                              ; preds = %165, %161
  call void @llvm.lifetime.end.p0(i64 8, ptr %22) #7
  br label %171

171:                                              ; preds = %170
  br label %172

172:                                              ; preds = %171
  store i1 false, ptr %6, align 1
  store i32 1, ptr %16, align 4
  br label %175

173:                                              ; No predecessors!
  br label %174

174:                                              ; preds = %173
  store i32 0, ptr %16, align 4
  br label %175

175:                                              ; preds = %174, %172
  call void @llvm.lifetime.end.p0(i64 100, ptr %21) #7
  %176 = load i32, ptr %16, align 4
  switch i32 %176, label %179 [
    i32 0, label %177
  ]

177:                                              ; preds = %175
  br label %178

178:                                              ; preds = %177, %134
  call void @pg_regfree(ptr noundef %17)
  store i32 0, ptr %16, align 4
  br label %179

179:                                              ; preds = %178, %175
  call void @llvm.lifetime.end.p0(i64 4, ptr %20) #7
  call void @llvm.lifetime.end.p0(i64 4, ptr %19) #7
  call void @llvm.lifetime.end.p0(i64 8, ptr %18) #7
  call void @llvm.lifetime.end.p0(i64 64, ptr %17) #7
  %180 = load i32, ptr %16, align 4
  switch i32 %180, label %184 [
    i32 0, label %181
  ]

181:                                              ; preds = %179
  %182 = load ptr, ptr %12, align 8
  %183 = load ptr, ptr %10, align 8
  store ptr %182, ptr %183, align 8
  store i1 true, ptr %6, align 1
  store i32 1, ptr %16, align 4
  br label %184

184:                                              ; preds = %181, %179, %133, %119
  call void @llvm.lifetime.end.p0(i64 4, ptr %14) #7
  call void @llvm.lifetime.end.p0(i64 4, ptr %13) #7
  call void @llvm.lifetime.end.p0(i64 8, ptr %12) #7
  %185 = load i1, ptr %6, align 1
  ret i1 %185
}