; Function Attrs: nounwind uwtable
define internal fastcc noundef zeroext i1 @makeItemLikeRegex(ptr noundef %0, ptr noundef nonnull readonly captures(none) %1, ptr noundef readonly captures(address_is_null) %2, ptr noundef nonnull writeonly captures(none) %3, ptr noundef %4) unnamed_addr #0 {
  %6 = alloca %struct.pg_regex_t, align 8
  %7 = alloca [100 x i8], align 16
  %8 = tail call ptr @palloc(i64 noundef 40) #6
  %9 = load volatile i32, ptr @InterruptPending, align 4
  %.not.i = icmp eq i32 %9, 0
  br i1 %.not.i, label %makeItemType.exit, label %10, !prof !6

10:                                               ; preds = %5
  tail call void @ProcessInterrupts() #6
  br label %makeItemType.exit

makeItemType.exit:                                ; preds = %5, %10
  store i32 42, ptr %8, align 8
  %11 = getelementptr inbounds nuw i8, ptr %8, i64 8
  store ptr null, ptr %11, align 8
  %12 = getelementptr inbounds nuw i8, ptr %8, i64 16
  store ptr %0, ptr %12, align 8
  %13 = load ptr, ptr %1, align 8
  %14 = getelementptr inbounds nuw i8, ptr %8, i64 24
  store ptr %13, ptr %14, align 8
  %15 = getelementptr inbounds nuw i8, ptr %1, i64 8
  %16 = load i32, ptr %15, align 8
  %17 = getelementptr inbounds nuw i8, ptr %8, i64 32
  store i32 %16, ptr %17, align 8
  %18 = getelementptr inbounds nuw i8, ptr %8, i64 36
  store i32 0, ptr %18, align 4
  %.not = icmp eq ptr %2, null
  br i1 %.not, label %.thread, label %.lr.ph

.lr.ph:                                           ; preds = %makeItemType.exit
  %19 = getelementptr inbounds nuw i8, ptr %2, i64 8
  %20 = load i32, ptr %19, align 8
  %21 = icmp sgt i32 %20, 0
  br i1 %21, label %.lr.ph55, label %.thread

.lr.ph55:                                         ; preds = %.lr.ph, %40
  %22 = phi i32 [ %41, %40 ], [ 0, %.lr.ph ]
  %indvars.iv = phi i64 [ %indvars.iv.next, %40 ], [ 0, %.lr.ph ]
  %23 = load ptr, ptr %2, align 8
  %24 = getelementptr inbounds nuw i8, ptr %23, i64 %indvars.iv
  %25 = load i8, ptr %24, align 1
  switch i8 %25, label %.split [
    i8 105, label %40
    i8 115, label %26
    i8 109, label %27
    i8 120, label %28
    i8 113, label %29
  ]

26:                                               ; preds = %.lr.ph55
  br label %40

27:                                               ; preds = %.lr.ph55
  br label %40

28:                                               ; preds = %.lr.ph55
  br label %40

29:                                               ; preds = %.lr.ph55
  br label %40

.split:                                           ; preds = %.lr.ph55
  %30 = tail call zeroext i1 @errsave_start(ptr noundef %4, ptr noundef null) #6
  br i1 %30, label %31, label %jspConvertRegexFlags.exit

31:                                               ; preds = %.split
  %32 = tail call i32 @errcode(i32 noundef 16801924) #6
  %33 = tail call i32 (ptr, ...) @errmsg(ptr noundef nonnull @.str, ptr noundef nonnull @.str.1) #6
  %34 = load ptr, ptr %2, align 8
  %35 = getelementptr inbounds nuw i8, ptr %34, i64 %indvars.iv
  %36 = tail call i32 @pg_mblen(ptr noundef %35) #6
  %37 = load ptr, ptr %2, align 8
  %38 = getelementptr inbounds nuw i8, ptr %37, i64 %indvars.iv
  %39 = tail call i32 (ptr, ...) @errdetail(ptr noundef nonnull @.str.12, i32 noundef %36, ptr noundef %38) #6
  tail call void @errsave_finish(ptr noundef %4, ptr noundef nonnull @.str.3, i32 noundef 602, ptr noundef nonnull @__func__.makeItemLikeRegex) #6
  br label %jspConvertRegexFlags.exit

40:                                               ; preds = %.lr.ph55, %26, %27, %28, %29
  %.sink66 = phi i32 [ 2, %26 ], [ 4, %27 ], [ 8, %28 ], [ 16, %29 ], [ 1, %.lr.ph55 ]
  %41 = or i32 %22, %.sink66
  store i32 %41, ptr %18, align 4
  %indvars.iv.next = add nuw nsw i64 %indvars.iv, 1
  %42 = load i32, ptr %19, align 8
  %43 = sext i32 %42 to i64
  %44 = icmp slt i64 %indvars.iv.next, %43
  br i1 %44, label %.lr.ph55, label %.critedge

.critedge:                                        ; preds = %40
  %45 = and i32 %41, 1
  %.not.i47 = icmp eq i32 %45, 0
  %spec.select.i = select i1 %.not.i47, i32 3, i32 11
  %46 = and i32 %41, 16
  %.not16.i = icmp eq i32 %46, 0
  br i1 %.not16.i, label %50, label %47

47:                                               ; preds = %.critedge
  %48 = and i32 %spec.select.i, 8
  %49 = or disjoint i32 %48, 4
  br label %.thread

50:                                               ; preds = %.critedge
  %51 = shl nuw nsw i32 %41, 5
  %52 = and i32 %51, 192
  %53 = or disjoint i32 %spec.select.i, %52
  %.3.i = xor i32 %53, 64
  %54 = and i32 %41, 8
  %.not19.i = icmp eq i32 %54, 0
  br i1 %.not19.i, label %.thread, label %55

55:                                               ; preds = %50
  %56 = tail call zeroext i1 @errsave_start(ptr noundef %4, ptr noundef null) #6
  br i1 %56, label %57, label %jspConvertRegexFlags.exit

57:                                               ; preds = %55
  %58 = tail call i32 @errcode(i32 noundef 1088) #6
  %59 = tail call i32 (ptr, ...) @errmsg(ptr noundef nonnull @.str.10) #6
  tail call void @errsave_finish(ptr noundef %4, ptr noundef nonnull @.str.3, i32 noundef 679, ptr noundef nonnull @__func__.jspConvertRegexFlags) #6
  br label %jspConvertRegexFlags.exit

.thread:                                          ; preds = %.lr.ph, %makeItemType.exit, %50, %47
  %.048.ph = phi i32 [ %.3.i, %50 ], [ %49, %47 ], [ 67, %makeItemType.exit ], [ 67, %.lr.ph ]
  call void @llvm.lifetime.start.p0(i64 64, ptr nonnull %6) #6
  %60 = load i32, ptr %15, align 8
  %61 = add i32 %60, 1
  %62 = sext i32 %61 to i64
  %63 = shl nsw i64 %62, 2
  %64 = tail call ptr @palloc(i64 noundef %63) #6
  %65 = load ptr, ptr %1, align 8
  %66 = load i32, ptr %15, align 8
  %67 = tail call i32 @pg_mb2wchar_with_len(ptr noundef %65, ptr noundef %64, i32 noundef %66) #6
  %68 = sext i32 %67 to i64
  %69 = call i32 @pg_regcomp(ptr noundef nonnull %6, ptr noundef %64, i64 noundef %68, i32 noundef %.048.ph, i32 noundef 100) #6
  %.not46 = icmp eq i32 %69, 0
  br i1 %.not46, label %77, label %70

70:                                               ; preds = %.thread
  call void @llvm.lifetime.start.p0(i64 100, ptr nonnull %7) #6
  %71 = call i64 @pg_regerror(i32 noundef %69, ptr noundef nonnull %6, ptr noundef nonnull %7, i64 noundef 100) #6
  %72 = call zeroext i1 @errsave_start(ptr noundef %4, ptr noundef null) #6
  br i1 %72, label %73, label %76

73:                                               ; preds = %70
  %74 = call i32 @errcode(i32 noundef 302252162) #6
  %75 = call i32 (ptr, ...) @errmsg(ptr noundef nonnull @.str.13, ptr noundef nonnull %7) #6
  call void @errsave_finish(ptr noundef %4, ptr noundef nonnull @.str.3, i32 noundef 631, ptr noundef nonnull @__func__.makeItemLikeRegex) #6
  br label %76

76:                                               ; preds = %70, %73
  call void @llvm.lifetime.end.p0(i64 100, ptr nonnull %7) #6
  call void @llvm.lifetime.end.p0(i64 64, ptr nonnull %6) #6
  br label %jspConvertRegexFlags.exit

77:                                               ; preds = %.thread
  call void @pg_regfree(ptr noundef nonnull %6) #6
  call void @llvm.lifetime.end.p0(i64 64, ptr nonnull %6) #6
  store ptr %8, ptr %3, align 8
  br label %jspConvertRegexFlags.exit

jspConvertRegexFlags.exit:                        ; preds = %76, %57, %55, %.split, %31, %77
  %.0 = phi i1 [ true, %77 ], [ false, %76 ], [ false, %31 ], [ false, %.split ], [ false, %55 ], [ false, %57 ]
  ret i1 %.0
}